target datalayout = "e-m:e-p270:32:32-p271:32:32-p272:64:64-i64:64-i128:128-f80:128-n8:16:32:64-S128"
target triple = "x86_64-pc-linux-gnu"

%struct.anon = type { i64, i64, i64, i64, i64, double, double, ptr, [2 x double], [2 x double], [2 x double], [20 x [20 x ptr]], [20 x [20 x ptr]], ptr, ptr, ptr }

; Function Attrs: nounwind uwtable
define internal i32 @resweb(double noundef %0, ptr noundef %1, ptr noundef %2, ptr noundef %3, ptr noundef %4) #0 {
  %6 = alloca double, align 8
  %7 = alloca ptr, align 8
  %8 = alloca ptr, align 8
  %9 = alloca ptr, align 8
  %10 = alloca ptr, align 8
  %11 = alloca i64, align 8
  %12 = alloca i64, align 8
  %13 = alloca i64, align 8
  %14 = alloca i64, align 8
  %15 = alloca i64, align 8
  %16 = alloca i64, align 8
  %17 = alloca ptr, align 8
  %18 = alloca ptr, align 8
  %19 = alloca ptr, align 8
  store double %0, ptr %6, align 8, !tbaa !26
  store ptr %1, ptr %7, align 8, !tbaa !8
  store ptr %2, ptr %8, align 8, !tbaa !8
  store ptr %3, ptr %9, align 8, !tbaa !8
  store ptr %4, ptr %10, align 8, !tbaa !4
  call void @llvm.lifetime.start.p0(i64 8, ptr %11) #6
  call void @llvm.lifetime.start.p0(i64 8, ptr %12) #6
  call void @llvm.lifetime.start.p0(i64 8, ptr %13) #6
  call void @llvm.lifetime.start.p0(i64 8, ptr %14) #6
  call void @llvm.lifetime.start.p0(i64 8, ptr %15) #6
  call void @llvm.lifetime.start.p0(i64 8, ptr %16) #6
  call void @llvm.lifetime.start.p0(i64 8, ptr %17) #6
  call void @llvm.lifetime.start.p0(i64 8, ptr %18) #6
  call void @llvm.lifetime.start.p0(i64 8, ptr %19) #6
  %20 = load ptr, ptr %10, align 8, !tbaa !4
  store ptr %20, ptr %19, align 8, !tbaa !4
  %21 = load ptr, ptr %8, align 8, !tbaa !8
  %22 = call ptr @N_VGetArrayPointer(ptr noundef %21)
  store ptr %22, ptr %18, align 8, !tbaa !42
  %23 = load ptr, ptr %9, align 8, !tbaa !8
  %24 = call ptr @N_VGetArrayPointer(ptr noundef %23)
  store ptr %24, ptr %17, align 8, !tbaa !42
  %25 = load ptr, ptr %19, align 8, !tbaa !4
  %26 = getelementptr inbounds nuw %struct.anon, ptr %25, i32 0, i32 2
  %27 = load i64, ptr %26, align 8, !tbaa !37
  store i64 %27, ptr %16, align 8, !tbaa !41
  %28 = load double, ptr %6, align 8, !tbaa !26
  %29 = load ptr, ptr %7, align 8, !tbaa !8
  %30 = load ptr, ptr %9, align 8, !tbaa !8
  %31 = load ptr, ptr %19, align 8, !tbaa !4
  call void @Fweb(double noundef %28, ptr noundef %29, ptr noundef %30, ptr noundef %31)
  store i64 0, ptr %12, align 8, !tbaa !41
  br label %32

32:                                               ; preds = %94, %5
  %33 = load i64, ptr %12, align 8, !tbaa !41
  %34 = icmp slt i64 %33, 20
  br i1 %34, label %35, label %97

35:                                               ; preds = %32
  %36 = load i64, ptr %12, align 8, !tbaa !41
  %37 = mul nsw i64 40, %36
  store i64 %37, ptr %14, align 8, !tbaa !41
  store i64 0, ptr %11, align 8, !tbaa !41
  br label %38

38:                                               ; preds = %90, %35
  %39 = load i64, ptr %11, align 8, !tbaa !41
  %40 = icmp slt i64 %39, 20
  br i1 %40, label %41, label %93

41:                                               ; preds = %38
  %42 = load i64, ptr %14, align 8, !tbaa !41
  %43 = load i64, ptr %11, align 8, !tbaa !41
  %44 = mul nsw i64 2, %43
  %45 = add nsw i64 %42, %44
  store i64 %45, ptr %15, align 8, !tbaa !41
  store i64 0, ptr %13, align 8, !tbaa !41
  br label %46

46:                                               ; preds = %86, %41
  %47 = load i64, ptr %13, align 8, !tbaa !41
  %48 = icmp slt i64 %47, 2
  br i1 %48, label %49, label %89

49:                                               ; preds = %46
  %50 = load i64, ptr %13, align 8, !tbaa !41
  %51 = load i64, ptr %16, align 8, !tbaa !41
  %52 = icmp slt i64 %50, %51
  br i1 %52, label %53, label %72

53:                                               ; preds = %49
  %54 = load ptr, ptr %18, align 8, !tbaa !42
  %55 = load i64, ptr %15, align 8, !tbaa !41
  %56 = load i64, ptr %13, align 8, !tbaa !41
  %57 = add nsw i64 %55, %56
  %58 = getelementptr inbounds double, ptr %54, i64 %57
  %59 = load double, ptr %58, align 8, !tbaa !26
  %60 = load ptr, ptr %17, align 8, !tbaa !42
  %61 = load i64, ptr %15, align 8, !tbaa !41
  %62 = load i64, ptr %13, align 8, !tbaa !41
  %63 = add nsw i64 %61, %62
  %64 = getelementptr inbounds double, ptr %60, i64 %63
  %65 = load double, ptr %64, align 8, !tbaa !26
  %66 = fsub double %59, %65
  %67 = load ptr, ptr %17, align 8, !tbaa !42
  %68 = load i64, ptr %15, align 8, !tbaa !41
  %69 = load i64, ptr %13, align 8, !tbaa !41
  %70 = add nsw i64 %68, %69
  %71 = getelementptr inbounds double, ptr %67, i64 %70
  store double %66, ptr %71, align 8, !tbaa !26
  br label %85

72:                                               ; preds = %49
  %73 = load ptr, ptr %17, align 8, !tbaa !42
  %74 = load i64, ptr %15, align 8, !tbaa !41
  %75 = load i64, ptr %13, align 8, !tbaa !41
  %76 = add nsw i64 %74, %75
  %77 = getelementptr inbounds double, ptr %73, i64 %76
  %78 = load double, ptr %77, align 8, !tbaa !26
  %79 = fneg double %78
  %80 = load ptr, ptr %17, align 8, !tbaa !42
  %81 = load i64, ptr %15, align 8, !tbaa !41
  %82 = load i64, ptr %13, align 8, !tbaa !41
  %83 = add nsw i64 %81, %82
  %84 = getelementptr inbounds double, ptr %80, i64 %83
  store double %79, ptr %84, align 8, !tbaa !26
  br label %85

85:                                               ; preds = %72, %53
  br label %86

86:                                               ; preds = %85
  %87 = load i64, ptr %13, align 8, !tbaa !41
  %88 = add nsw i64 %87, 1
  store i64 %88, ptr %13, align 8, !tbaa !41
  br label %46

89:                                               ; preds = %46
  br label %90

90:                                               ; preds = %89
  %91 = load i64, ptr %11, align 8, !tbaa !41
  %92 = add nsw i64 %91, 1
  store i64 %92, ptr %11, align 8, !tbaa !41
  br label %38

93:                                               ; preds = %38
  br label %94

94:                                               ; preds = %93
  %95 = load i64, ptr %12, align 8, !tbaa !41
  %96 = add nsw i64 %95, 1
  store i64 %96, ptr %12, align 8, !tbaa !41
  br label %32

97:                                               ; preds = %32
  call void @llvm.lifetime.end.p0(i64 8, ptr %19) #6
  call void @llvm.lifetime.end.p0(i64 8, ptr %18) #6
  call void @llvm.lifetime.end.p0(i64 8, ptr %17) #6
  call void @llvm.lifetime.end.p0(i64 8, ptr %16) #6
  call void @llvm.lifetime.end.p0(i64 8, ptr %15) #6
  call void @llvm.lifetime.end.p0(i64 8, ptr %14) #6
  call void @llvm.lifetime.end.p0(i64 8, ptr %13) #6
  call void @llvm.lifetime.end.p0(i64 8, ptr %12) #6
  call void @llvm.lifetime.end.p0(i64 8, ptr %11) #6
  ret i32 0
}